target datalayout = "e-m:e-p270:32:32-p271:32:32-p272:64:64-i64:64-i128:128-f80:128-n8:16:32:64-S128"
target triple = "x86_64-pc-linux-gnu"

%class.JVMFlagLimit = type { i16, i8, i8 }
%class.JVMFlag = type { ptr, ptr, i32, i32 }

@_ZN12JVMFlagLimit13_last_checkedE = hidden global i32 -1, align 4
@_ZN12JVMFlagLimit10flagLimitsE = hidden global ptr getelementptr (i8, ptr @_ZL14flagLimitTable, i64 8), align 8
@_ZN7JVMFlag5flagsE = external global ptr, align 8

; Function Attrs: mustprogress nounwind uwtable
define linkonce_odr hidden noundef ptr @_ZN12JVMFlagLimit2atE12JVMFlagsEnum(i32 noundef %0) #1 comdat align 2 {
  %2 = alloca i32, align 4
  store i32 %0, ptr %2, align 4
  %3 = load i32, ptr %2, align 4
  call void @_ZN7JVMFlag22assert_valid_flag_enumE12JVMFlagsEnum(i32 noundef %3)
  %4 = load ptr, ptr @_ZN12JVMFlagLimit10flagLimitsE, align 8
  %5 = load i32, ptr %2, align 4
  %6 = sext i32 %5 to i64
  %7 = getelementptr inbounds ptr, ptr %4, i64 %6
  %8 = load ptr, ptr %7, align 8
  ret ptr %8
}

; Function Attrs: mustprogress nounwind uwtable
define linkonce_odr hidden void @_ZN7JVMFlag22assert_valid_flag_enumE12JVMFlagsEnum(i32 noundef %0) #1 comdat align 2 {
  %2 = alloca i32, align 4
  store i32 %0, ptr %2, align 4
  ret void
}

; Function Attrs: mustprogress nounwind uwtable
define linkonce_odr hidden noundef ptr @_ZN12JVMFlagLimit11get_kind_atE12JVMFlagsEnumi(i32 noundef %0, i32 noundef %1) #1 comdat align 2 {
  %3 = alloca ptr, align 8
  %4 = alloca i32, align 4
  %5 = alloca i32, align 4
  %6 = alloca ptr, align 8
  store i32 %0, ptr %4, align 4
  store i32 %1, ptr %5, align 4
  %7 = load i32, ptr %4, align 4
  %8 = call noundef ptr @_ZN12JVMFlagLimit2atE12JVMFlagsEnum(i32 noundef %7)
  store ptr %8, ptr %6, align 8
  %9 = load ptr, ptr %6, align 8
  %10 = icmp ne ptr %9, null
  br i1 %10, label %11, label %22

11:                                               ; preds = %2
  %12 = load ptr, ptr %6, align 8
  %13 = getelementptr inbounds %class.JVMFlagLimit, ptr %12, i32 0, i32 2
  %14 = load i8, ptr %13, align 1
  %15 = sext i8 %14 to i32
  %16 = load i32, ptr %5, align 4
  %17 = and i32 %15, %16
  %18 = icmp ne i32 %17, 0
  br i1 %18, label %19, label %22

19:                                               ; preds = %11
  %20 = load i32, ptr %4, align 4
  store i32 %20, ptr @_ZN12JVMFlagLimit13_last_checkedE, align 4
  %21 = load ptr, ptr %6, align 8
  store ptr %21, ptr %3, align 8
  br label %23

22:                                               ; preds = %11, %2
  store ptr null, ptr %3, align 8
  br label %23

23:                                               ; preds = %22, %19
  %24 = load ptr, ptr %3, align 8
  ret ptr %24
}

; Function Attrs: mustprogress nounwind uwtable
define linkonce_odr hidden noundef ptr @_ZN7JVMFlag14flag_from_enumE12JVMFlagsEnum(i32 noundef %0) #1 comdat align 2 {
  %2 = alloca i32, align 4
  store i32 %0, ptr %2, align 4
  %3 = load i32, ptr %2, align 4
  call void @_ZN7JVMFlag22assert_valid_flag_enumE12JVMFlagsEnum(i32 noundef %3)
  %4 = load ptr, ptr @_ZN7JVMFlag5flagsE, align 8
  %5 = load i32, ptr %2, align 4
  %6 = sext i32 %5 to i64
  %7 = getelementptr inbounds %class.JVMFlag, ptr %4, i64 %6
  ret ptr %7
}

; Function Attrs: mustprogress nounwind uwtable
define linkonce_odr hidden noundef ptr @_ZN12JVMFlagLimit12get_range_atE12JVMFlagsEnum(i32 noundef %0) #1 comdat align 2 {
  %2 = alloca i32, align 4
  store i32 %0, ptr %2, align 4
  %3 = load i32, ptr %2, align 4
  %4 = call noundef ptr @_ZN12JVMFlagLimit11get_kind_atE12JVMFlagsEnumi(i32 noundef %3, i32 noundef 1)
  ret ptr %4
}

; Function Attrs: mustprogress nounwind uwtable
define hidden noundef zeroext i1 @_ZN12JVMFlagLimit16check_all_rangesEv() #1 align 2 {
  %1 = alloca i8, align 1
  %2 = alloca i32, align 4
  %3 = alloca i32, align 4
  store i8 1, ptr %1, align 1
  store i32 0, ptr %2, align 4
  br label %4

4:                                                ; preds = %19, %0
  %5 = load i32, ptr %2, align 4
  %6 = icmp slt i32 %5, 1223
  br i1 %6, label %7, label %22

7:                                                ; preds = %4
  %8 = load i32, ptr %2, align 4
  store i32 %8, ptr %3, align 4
  %9 = load i32, ptr %3, align 4
  %10 = call noundef ptr @_ZN12JVMFlagLimit12get_range_atE12JVMFlagsEnum(i32 noundef %9)
  %11 = icmp ne ptr %10, null
  br i1 %11, label %12, label %18

12:                                               ; preds = %7
  %13 = load i32, ptr %3, align 4
  %14 = call noundef ptr @_ZN7JVMFlag14flag_from_enumE12JVMFlagsEnum(i32 noundef %13)
  %15 = call noundef i32 @_ZN13JVMFlagAccess11check_rangeEPK7JVMFlagb(ptr noundef %14, i1 noundef zeroext true)
  %16 = icmp ne i32 %15, 0
  br i1 %16, label %17, label %18

17:                                               ; preds = %12
  store i8 0, ptr %1, align 1
  br label %18

18:                                               ; preds = %17, %12, %7
  br label %19

19:                                               ; preds = %18
  %20 = load i32, ptr %2, align 4
  %21 = add nsw i32 %20, 1
  store i32 %21, ptr %2, align 4
  br label %4, !llvm.loop !6

22:                                               ; preds = %4
  %23 = load i8, ptr %1, align 1
  %24 = trunc i8 %23 to i1
  ret i1 %24
}