; Function Attrs: mustprogress nounwind uwtable
define hidden noundef zeroext i1 @_ZN12JVMFlagLimit16check_all_rangesEv() local_unnamed_addr #2 align 2 {
  %.pre12 = load ptr, ptr @_ZN12JVMFlagLimit10flagLimitsE, align 8
  br label %1

1:                                                ; preds = %0, %_ZN12JVMFlagLimit12get_range_atE12JVMFlagsEnum.exit.thread
  %2 = phi ptr [ %.pre12, %0 ], [ %14, %_ZN12JVMFlagLimit12get_range_atE12JVMFlagsEnum.exit.thread ]
  %indvars.iv = phi i64 [ 0, %0 ], [ %indvars.iv.next, %_ZN12JVMFlagLimit12get_range_atE12JVMFlagsEnum.exit.thread ]
  %.011 = phi i1 [ true, %0 ], [ %.1, %_ZN12JVMFlagLimit12get_range_atE12JVMFlagsEnum.exit.thread ]
  %3 = getelementptr inbounds ptr, ptr %2, i64 %indvars.iv
  %4 = load ptr, ptr %3, align 8
  %.not.i.i = icmp eq ptr %4, null
  br i1 %.not.i.i, label %_ZN12JVMFlagLimit12get_range_atE12JVMFlagsEnum.exit.thread, label %5

5:                                                ; preds = %1
  %6 = getelementptr inbounds i8, ptr %4, i64 3
  %7 = load i8, ptr %6, align 1
  %8 = and i8 %7, 1
  %.not7.i.i = icmp eq i8 %8, 0
  br i1 %.not7.i.i, label %_ZN12JVMFlagLimit12get_range_atE12JVMFlagsEnum.exit.thread, label %9

9:                                                ; preds = %5
  %10 = trunc nuw nsw i64 %indvars.iv to i32
  store i32 %10, ptr @_ZN12JVMFlagLimit13_last_checkedE, align 4
  %11 = load ptr, ptr @_ZN7JVMFlag5flagsE, align 8
  %12 = getelementptr inbounds %class.JVMFlag, ptr %11, i64 %indvars.iv
  %13 = tail call noundef i32 @_ZN13JVMFlagAccess11check_rangeEPK7JVMFlagb(ptr noundef %12, i1 noundef zeroext true) #5
  %.not7 = icmp eq i32 %13, 0
  %spec.select = select i1 %.not7, i1 %.011, i1 false
  %.pre = load ptr, ptr @_ZN12JVMFlagLimit10flagLimitsE, align 8
  br label %_ZN12JVMFlagLimit12get_range_atE12JVMFlagsEnum.exit.thread

_ZN12JVMFlagLimit12get_range_atE12JVMFlagsEnum.exit.thread: ; preds = %1, %5, %9
  %14 = phi ptr [ %.pre, %9 ], [ %2, %5 ], [ %2, %1 ]
  %.1 = phi i1 [ %spec.select, %9 ], [ %.011, %5 ], [ %.011, %1 ]
  %indvars.iv.next = add nuw nsw i64 %indvars.iv, 1
  %exitcond.not = icmp eq i64 %indvars.iv.next, 1223
  br i1 %exitcond.not, label %15, label %1, !llvm.loop !6

15:                                               ; preds = %_ZN12JVMFlagLimit12get_range_atE12JVMFlagsEnum.exit.thread
  ret i1 %.1
}